target datalayout = "e-m:e-p270:32:32-p271:32:32-p272:64:64-i64:64-i128:128-f80:128-n8:16:32:64-S128"
target triple = "x86_64-pc-linux-gnu"

%class.CodeSection = type { ptr, ptr, ptr, ptr, ptr, ptr, ptr, ptr, i8, i8, i32, i8, ptr }
%class.relocInfo = type { i16 }

; Function Attrs: mustprogress nounwind uwtable
define hidden void @_ZN11CodeSection22initialize_shared_locsEP9relocInfoi(ptr noundef nonnull align 8 dereferenceable(88) %0, ptr noundef %1, i32 noundef %2) #1 align 2 {
  %4 = alloca ptr, align 8
  %5 = alloca ptr, align 8
  %6 = alloca i32, align 4
  store ptr %0, ptr %4, align 8
  store ptr %1, ptr %5, align 8
  store i32 %2, ptr %6, align 4
  %7 = load ptr, ptr %4, align 8
  br label %8

8:                                                ; preds = %18, %3
  %9 = load ptr, ptr %5, align 8
  %10 = ptrtoint ptr %9 to i64
  %11 = urem i64 %10, 8
  %12 = icmp ne i64 %11, 0
  br i1 %12, label %13, label %16

13:                                               ; preds = %8
  %14 = load i32, ptr %6, align 4
  %15 = icmp sgt i32 %14, 0
  br label %16

16:                                               ; preds = %13, %8
  %17 = phi i1 [ false, %8 ], [ %15, %13 ]
  br i1 %17, label %18, label %23

18:                                               ; preds = %16
  %19 = load ptr, ptr %5, align 8
  %20 = getelementptr inbounds %class.relocInfo, ptr %19, i32 1
  store ptr %20, ptr %5, align 8
  %21 = load i32, ptr %6, align 4
  %22 = add nsw i32 %21, -1
  store i32 %22, ptr %6, align 4
  br label %8, !llvm.loop !13

23:                                               ; preds = %16
  %24 = load i32, ptr %6, align 4
  %25 = icmp sgt i32 %24, 0
  br i1 %25, label %26, label %37

26:                                               ; preds = %23
  %27 = load ptr, ptr %5, align 8
  %28 = getelementptr inbounds %class.CodeSection, ptr %7, i32 0, i32 4
  store ptr %27, ptr %28, align 8
  %29 = load ptr, ptr %5, align 8
  %30 = getelementptr inbounds %class.CodeSection, ptr %7, i32 0, i32 5
  store ptr %29, ptr %30, align 8
  %31 = load ptr, ptr %5, align 8
  %32 = load i32, ptr %6, align 4
  %33 = sext i32 %32 to i64
  %34 = getelementptr inbounds %class.relocInfo, ptr %31, i64 %33
  %35 = getelementptr inbounds %class.CodeSection, ptr %7, i32 0, i32 6
  store ptr %34, ptr %35, align 8
  %36 = getelementptr inbounds %class.CodeSection, ptr %7, i32 0, i32 8
  store i8 0, ptr %36, align 8
  br label %37

37:                                               ; preds = %26, %23
  ret void
}