; Function Attrs: mustprogress nofree norecurse nosync nounwind memory(argmem: write) uwtable
define hidden void @_ZN11CodeSection22initialize_shared_locsEP9relocInfoi(ptr nocapture noundef nonnull writeonly align 8 dereferenceable(88) %0, ptr noundef %1, i32 noundef %2) local_unnamed_addr #8 align 2 {
  %4 = ptrtoint ptr %1 to i64
  %5 = and i64 %4, 7
  %6 = icmp ne i64 %5, 0
  %7 = icmp sgt i32 %2, 0
  %8 = and i1 %6, %7
  br i1 %8, label %.lr.ph, label %._crit_edge

.lr.ph:                                           ; preds = %3, %.lr.ph
  %.011 = phi i32 [ %10, %.lr.ph ], [ %2, %3 ]
  %.0910 = phi ptr [ %9, %.lr.ph ], [ %1, %3 ]
  %9 = getelementptr inbounds i8, ptr %.0910, i64 2
  %10 = add nsw i32 %.011, -1
  %11 = ptrtoint ptr %9 to i64
  %12 = and i64 %11, 7
  %13 = icmp ne i64 %12, 0
  %14 = icmp ugt i32 %.011, 1
  %15 = select i1 %13, i1 %14, i1 false
  br i1 %15, label %.lr.ph, label %._crit_edge, !llvm.loop !26

._crit_edge:                                      ; preds = %.lr.ph, %3
  %.09.lcssa = phi ptr [ %1, %3 ], [ %9, %.lr.ph ]
  %.0.lcssa = phi i32 [ %2, %3 ], [ %10, %.lr.ph ]
  %.lcssa = phi i1 [ %7, %3 ], [ %14, %.lr.ph ]
  br i1 %.lcssa, label %16, label %23

16:                                               ; preds = %._crit_edge
  %17 = getelementptr inbounds i8, ptr %0, i64 32
  store ptr %.09.lcssa, ptr %17, align 8
  %18 = getelementptr inbounds i8, ptr %0, i64 40
  store ptr %.09.lcssa, ptr %18, align 8
  %19 = zext nneg i32 %.0.lcssa to i64
  %20 = getelementptr inbounds %class.relocInfo, ptr %.09.lcssa, i64 %19
  %21 = getelementptr inbounds i8, ptr %0, i64 48
  store ptr %20, ptr %21, align 8
  %22 = getelementptr inbounds i8, ptr %0, i64 64
  store i8 0, ptr %22, align 8
  br label %23

23:                                               ; preds = %16, %._crit_edge
  ret void
}